target datalayout = "e-m:e-p270:32:32-p271:32:32-p272:64:64-i64:64-i128:128-f80:128-n8:16:32:64-S128"
target triple = "x86_64-pc-linux-gnu"

%struct.slurm_conf_t = type { i64, ptr, i16, ptr, ptr, ptr, ptr, ptr, i16, ptr, ptr, ptr, ptr, ptr, ptr, ptr, i16, ptr, ptr, ptr, ptr, i16, ptr, ptr, ptr, i64, ptr, ptr, ptr, ptr, i16, ptr, ptr, i16, i32, ptr, i32, ptr, i32, i32, ptr, ptr, i64, i64, ptr, i16, i16, ptr, i32, i32, ptr, i32, ptr, i32, i16, i16, i16, ptr, i16, i16, ptr, ptr, i32, i16, i16, ptr, i32, i16, ptr, ptr, ptr, ptr, i16, ptr, ptr, ptr, ptr, i32, ptr, ptr, ptr, ptr, i16, i16, ptr, i32, i32, i32, i16, i16, ptr, ptr, i16, ptr, ptr, i32, i32, i32, i32, i32, i64, i32, i32, i16, ptr, ptr, i32, ptr, ptr, ptr, i16, i32, ptr, ptr, i16, ptr, ptr, i32, i16, ptr, ptr, ptr, ptr, i32, i32, i16, i16, i32, ptr, i16, ptr, i32, i32, i32, i32, i32, i32, ptr, i16, ptr, ptr, i32, i16, ptr, i32, i16, i16, ptr, ptr, ptr, i16, ptr, ptr, ptr, ptr, i16, i16, ptr, i16, ptr, i16, ptr, i16, ptr, i16, ptr, ptr, ptr, ptr, i16, ptr, ptr, ptr, i32, ptr, i32, ptr, ptr, i16, ptr, ptr, i32, i16, ptr, ptr, i16, i16, ptr, i16, ptr, ptr, ptr, i32, ptr, i16, i16, ptr, ptr, ptr, ptr, ptr, ptr, ptr, ptr, i16, i32, i16, ptr, ptr, ptr, ptr, i32, ptr, ptr, ptr, i16, ptr, ptr, ptr, i16, ptr, i16, ptr, i16, i16, ptr }
%struct.yaml_event_s = type { i32, %union.anon.20, %struct.yaml_mark_s, %struct.yaml_mark_s }
%union.anon.20 = type { %struct.anon.26 }
%struct.anon.26 = type { ptr, ptr, ptr, i64, i32, i32, i32 }
%struct.yaml_mark_s = type { i64, i64, i64 }
%struct.yaml_parser_s = type { i32, ptr, i64, i32, %struct.yaml_mark_s, ptr, %struct.yaml_mark_s, ptr, ptr, %union.anon.9, i32, %struct.anon.11, i64, %struct.anon.12, i32, i64, %struct.yaml_mark_s, i32, i32, i32, %struct.anon.13, i64, i32, %struct.anon.14, i32, i32, %struct.anon.15, %struct.anon.16, i32, %struct.anon.17, %struct.anon.18, %struct.anon.19, ptr }
%union.anon.9 = type { %struct.anon.10 }
%struct.anon.10 = type { ptr, ptr, ptr }
%struct.anon.11 = type { ptr, ptr, ptr, ptr }
%struct.anon.12 = type { ptr, ptr, ptr, ptr }
%struct.anon.13 = type { ptr, ptr, ptr, ptr }
%struct.anon.14 = type { ptr, ptr, ptr }
%struct.anon.15 = type { ptr, ptr, ptr }
%struct.anon.16 = type { ptr, ptr, ptr }
%struct.anon.17 = type { ptr, ptr, ptr }
%struct.anon.18 = type { ptr, ptr, ptr }
%struct.anon.19 = type { ptr, ptr, ptr }
%struct.anon.29 = type { i32, ptr }

@plugin_type = dso_local constant [16 x i8] c"serializer/yaml\00", align 16
@slurm_conf = external global %struct.slurm_conf_t, align 8
@.str.23 = private unnamed_addr constant [44 x i8] c"%s: YAML nested too deep (%d layers) at %pD\00", align 1
@__func__._yaml_to_data = private unnamed_addr constant [14 x i8] c"_yaml_to_data\00", align 1
@.str.24 = private unnamed_addr constant [26 x i8] c"%s: YAML parser error: %s\00", align 1
@.str.25 = private unnamed_addr constant [24 x i8] c"DATA: %s: %pD{%d} -> %s\00", align 1
@.str.26 = private unnamed_addr constant [29 x i8] c"%s: %s: DATA: %pD{%d} -> POP\00", align 1
@.str.27 = private unnamed_addr constant [13 x i8] c"invalid type\00", align 1

; Function Attrs: nounwind uwtable
define internal ptr @_yaml_event_type_string(i32 noundef %0) #0 {
  %2 = alloca ptr, align 8
  %3 = alloca i32, align 4
  %4 = alloca i32, align 4
  %5 = alloca i32, align 4
  store i32 %0, ptr %3, align 4
  call void @llvm.lifetime.start.p0(i64 4, ptr %4) #6
  store i32 0, ptr %4, align 4
  br label %6

6:                                                ; preds = %26, %1
  %7 = load i32, ptr %4, align 4
  %8 = sext i32 %7 to i64
  %9 = icmp ult i64 %8, 11
  br i1 %9, label %11, label %10

10:                                               ; preds = %6
  store i32 2, ptr %5, align 4
  br label %29

11:                                               ; preds = %6
  %12 = load i32, ptr %4, align 4
  %13 = sext i32 %12 to i64
  %14 = getelementptr inbounds [11 x %struct.anon.29], ptr @event_types, i64 0, i64 %13
  %15 = getelementptr inbounds nuw %struct.anon.29, ptr %14, i32 0, i32 0
  %16 = load i32, ptr %15, align 16
  %17 = load i32, ptr %3, align 4
  %18 = icmp eq i32 %16, %17
  br i1 %18, label %19, label %25

19:                                               ; preds = %11
  %20 = load i32, ptr %4, align 4
  %21 = sext i32 %20 to i64
  %22 = getelementptr inbounds [11 x %struct.anon.29], ptr @event_types, i64 0, i64 %21
  %23 = getelementptr inbounds nuw %struct.anon.29, ptr %22, i32 0, i32 1
  %24 = load ptr, ptr %23, align 8
  store ptr %24, ptr %2, align 8
  store i32 1, ptr %5, align 4
  br label %29

25:                                               ; preds = %11
  br label %26

26:                                               ; preds = %25
  %27 = load i32, ptr %4, align 4
  %28 = add nsw i32 %27, 1
  store i32 %28, ptr %4, align 4
  br label %6, !llvm.loop !11

29:                                               ; preds = %19, %10
  call void @llvm.lifetime.end.p0(i64 4, ptr %4) #6
  %30 = load i32, ptr %5, align 4
  switch i32 %30, label %34 [
    i32 2, label %31
    i32 1, label %32
  ]

31:                                               ; preds = %29
  call void (ptr, ...) @slurm_fatal_abort(ptr noundef @.str.27) #8
  unreachable

32:                                               ; preds = %29
  %33 = load ptr, ptr %2, align 8
  ret ptr %33

34:                                               ; preds = %29
  unreachable
}

; Function Attrs: nounwind uwtable
define internal i32 @_yaml_to_data(i32 noundef %0, ptr noundef %1, ptr noundef %2, ptr noundef %3) #0 {
  %5 = alloca i32, align 4
  %6 = alloca i32, align 4
  %7 = alloca ptr, align 8
  %8 = alloca ptr, align 8
  %9 = alloca ptr, align 8
  %10 = alloca i32, align 4
  %11 = alloca i32, align 4
  %12 = alloca %struct.yaml_event_s, align 8
  store i32 %0, ptr %6, align 4
  store ptr %1, ptr %7, align 8
  store ptr %2, ptr %8, align 8
  store ptr %3, ptr %9, align 8
  call void @llvm.lifetime.start.p0(i64 4, ptr %10) #6
  store i32 1, ptr %10, align 4
  %13 = load i32, ptr %6, align 4
  %14 = icmp sgt i32 %13, 64
  br i1 %14, label %15, label %20

15:                                               ; preds = %4
  %16 = load i32, ptr %6, align 4
  %17 = load ptr, ptr %8, align 8
  %18 = call i32 (ptr, ...) @slurm_error(ptr noundef @.str.23, ptr noundef @__func__._yaml_to_data, i32 noundef %16, ptr noundef %17)
  %19 = load ptr, ptr %9, align 8
  store i32 9214, ptr %19, align 4
  store i32 5, ptr %5, align 4
  store i32 1, ptr %11, align 4
  br label %101

20:                                               ; preds = %4
  br label %21

21:                                               ; preds = %99, %20
  %22 = load i32, ptr %10, align 4
  %23 = icmp ult i32 %22, 4
  br i1 %23, label %24, label %100

24:                                               ; preds = %21
  call void @llvm.lifetime.start.p0(i64 104, ptr %12) #6
  %25 = load ptr, ptr %7, align 8
  %26 = call i32 @yaml_parser_parse(ptr noundef %25, ptr noundef %12)
  %27 = icmp ne i32 %26, 0
  br i1 %27, label %34, label %28

28:                                               ; preds = %24
  call void @yaml_event_delete(ptr noundef %12)
  %29 = load ptr, ptr %7, align 8
  %30 = getelementptr inbounds nuw %struct.yaml_parser_s, ptr %29, i32 0, i32 1
  %31 = load ptr, ptr %30, align 8
  %32 = call i32 (ptr, ...) @slurm_error(ptr noundef @.str.24, ptr noundef @__func__._yaml_to_data, ptr noundef %31)
  %33 = load ptr, ptr %9, align 8
  store i32 9215, ptr %33, align 4
  store i32 5, ptr %5, align 4
  store i32 1, ptr %11, align 4
  br label %97

34:                                               ; preds = %24
  br label %35

35:                                               ; preds = %34
  %36 = load i64, ptr getelementptr inbounds nuw (%struct.slurm_conf_t, ptr @slurm_conf, i32 0, i32 42), align 8
  %37 = and i64 %36, 256
  %38 = icmp ne i64 %37, 0
  br i1 %38, label %39, label %67

39:                                               ; preds = %35
  %40 = load ptr, ptr %7, align 8
  %41 = getelementptr inbounds nuw %struct.yaml_parser_s, ptr %40, i32 0, i32 11
  %42 = getelementptr inbounds nuw %struct.anon.11, ptr %41, i32 0, i32 0
  %43 = load ptr, ptr %42, align 8
  %44 = load ptr, ptr %7, align 8
  %45 = getelementptr inbounds nuw %struct.yaml_parser_s, ptr %44, i32 0, i32 11
  %46 = getelementptr inbounds nuw %struct.anon.11, ptr %45, i32 0, i32 3
  %47 = load ptr, ptr %46, align 8
  %48 = load ptr, ptr %7, align 8
  %49 = getelementptr inbounds nuw %struct.yaml_parser_s, ptr %48, i32 0, i32 11
  %50 = getelementptr inbounds nuw %struct.anon.11, ptr %49, i32 0, i32 0
  %51 = load ptr, ptr %50, align 8
  %52 = ptrtoint ptr %47 to i64
  %53 = ptrtoint ptr %51 to i64
  %54 = sub i64 %52, %53
  %55 = getelementptr inbounds nuw %struct.yaml_event_s, ptr %12, i32 0, i32 2
  %56 = getelementptr inbounds nuw %struct.yaml_mark_s, ptr %55, i32 0, i32 0
  %57 = load i64, ptr %56, align 8
  %58 = getelementptr inbounds nuw %struct.yaml_event_s, ptr %12, i32 0, i32 2
  %59 = getelementptr inbounds nuw %struct.yaml_mark_s, ptr %58, i32 0, i32 0
  %60 = load i64, ptr %59, align 8
  %61 = add i64 %60, 16
  %62 = load ptr, ptr %8, align 8
  %63 = load i32, ptr %6, align 4
  %64 = getelementptr inbounds nuw %struct.yaml_event_s, ptr %12, i32 0, i32 0
  %65 = load i32, ptr %64, align 8
  %66 = call ptr @_yaml_event_type_string(i32 noundef %65)
  call void (ptr, i64, i64, i64, ptr, ...) @_log_flag_hex(ptr noundef %43, i64 noundef %54, i64 noundef %57, i64 noundef %61, ptr noundef @.str.25, ptr noundef @__func__._yaml_to_data, ptr noundef %62, i32 noundef %63, ptr noundef %66)
  br label %67

67:                                               ; preds = %39, %35
  br label %68

68:                                               ; preds = %67
  br label %69

69:                                               ; preds = %68
  %70 = load i32, ptr %6, align 4
  %71 = load ptr, ptr %7, align 8
  %72 = load ptr, ptr %8, align 8
  %73 = load ptr, ptr %9, align 8
  %74 = load i32, ptr %10, align 4
  %75 = call i32 @_on_parse_event(i32 noundef %70, ptr noundef %71, ptr noundef %12, ptr noundef %72, ptr noundef %73, i32 noundef %74)
  store i32 %75, ptr %10, align 4
  %76 = load i32, ptr %10, align 4
  %77 = icmp eq i32 %76, 3
  br i1 %77, label %78, label %96

78:                                               ; preds = %69
  br label %79

79:                                               ; preds = %78
  %80 = load i64, ptr getelementptr inbounds nuw (%struct.slurm_conf_t, ptr @slurm_conf, i32 0, i32 42), align 8
  %81 = and i64 %80, 256
  %82 = icmp ne i64 %81, 0
  br i1 %82, label %83, label %93

83:                                               ; preds = %79
  br label %84

84:                                               ; preds = %83
  %85 = call i32 @slurm_get_log_level()
  %86 = icmp sge i32 %85, 4
  br i1 %86, label %87, label %90

87:                                               ; preds = %84
  %88 = load ptr, ptr %8, align 8
  %89 = load i32, ptr %6, align 4
  call void (i32, ptr, ...) @slurm_log_var(i32 noundef 4, ptr noundef @.str.26, ptr noundef @plugin_type, ptr noundef @__func__._yaml_to_data, ptr noundef %88, i32 noundef %89)
  br label %90

90:                                               ; preds = %87, %84
  br label %91

91:                                               ; preds = %90
  br label %92

92:                                               ; preds = %91
  br label %93

93:                                               ; preds = %92, %79
  br label %94

94:                                               ; preds = %93
  br label %95

95:                                               ; preds = %94
  store i32 2, ptr %10, align 4
  store i32 3, ptr %11, align 4
  br label %97

96:                                               ; preds = %69
  store i32 0, ptr %11, align 4
  br label %97

97:                                               ; preds = %96, %95, %28
  call void @llvm.lifetime.end.p0(i64 104, ptr %12) #6
  %98 = load i32, ptr %11, align 4
  switch i32 %98, label %101 [
    i32 0, label %99
    i32 3, label %100
  ]

99:                                               ; preds = %97
  br label %21, !llvm.loop !8

100:                                              ; preds = %97, %21
  store i32 2, ptr %5, align 4
  store i32 1, ptr %11, align 4
  br label %101

101:                                              ; preds = %100, %97, %15
  call void @llvm.lifetime.end.p0(i64 4, ptr %10) #6
  %102 = load i32, ptr %5, align 4
  ret i32 %102
}