; Function Attrs: nounwind uwtable
define internal fastcc noundef range(i32 2, 6) i32 @_yaml_to_data(i32 noundef %0, ptr noundef nonnull %1, ptr noundef %2, ptr noundef nonnull writeonly captures(none) %3) unnamed_addr #0 {
  %5 = alloca %struct.yaml_event_s, align 8
  %6 = icmp sgt i32 %0, 64
  br i1 %6, label %11, label %.preheader

.preheader:                                       ; preds = %4
  %7 = getelementptr inbounds nuw i8, ptr %1, i64 136
  %8 = getelementptr inbounds nuw i8, ptr %1, i64 160
  %9 = getelementptr inbounds nuw i8, ptr %5, i64 56
  call void @llvm.lifetime.start.p0(i64 104, ptr nonnull %5) #6
  %10 = call i32 @yaml_parser_parse(ptr noundef nonnull %1, ptr noundef nonnull %5) #6
  %.not39 = icmp eq i32 %10, 0
  br i1 %.not39, label %.thread31, label %.lr.ph

11:                                               ; preds = %4
  %12 = tail call i32 (ptr, ...) @slurm_error(ptr noundef nonnull @.str.23, ptr noundef nonnull @__func__._yaml_to_data, i32 noundef %0, ptr noundef %2) #6
  store i32 9214, ptr %3, align 4
  br label %.loopexit

13:                                               ; preds = %47
  call void @llvm.lifetime.start.p0(i64 104, ptr nonnull %5) #6
  %14 = call i32 @yaml_parser_parse(ptr noundef nonnull %1, ptr noundef nonnull %5) #6
  %.not = icmp eq i32 %14, 0
  br i1 %.not, label %.thread31, label %.lr.ph

.thread31:                                        ; preds = %13, %.preheader
  call void @yaml_event_delete(ptr noundef nonnull %5) #6
  %15 = getelementptr inbounds nuw i8, ptr %1, i64 8
  %16 = load ptr, ptr %15, align 8
  %17 = call i32 (ptr, ...) @slurm_error(ptr noundef nonnull @.str.24, ptr noundef nonnull @__func__._yaml_to_data, ptr noundef %16) #6
  store i32 9215, ptr %3, align 4
  call void @llvm.lifetime.end.p0(i64 104, ptr nonnull %5) #6
  br label %.loopexit

.lr.ph:                                           ; preds = %.preheader, %13
  %18 = load i64, ptr getelementptr inbounds nuw (i8, ptr @slurm_conf, i64 320), align 8
  %19 = and i64 %18, 256
  %.not27 = icmp eq i64 %19, 0
  br i1 %.not27, label %37, label %20

20:                                               ; preds = %.lr.ph
  %21 = load ptr, ptr %7, align 8
  %22 = load ptr, ptr %8, align 8
  %23 = ptrtoint ptr %22 to i64
  %24 = ptrtoint ptr %21 to i64
  %25 = sub i64 %23, %24
  %26 = load i64, ptr %9, align 8
  %27 = add i64 %26, 16
  %28 = load i32, ptr %5, align 8
  br label %30

29:                                               ; preds = %30
  %indvars.iv.next.i = add nuw nsw i64 %indvars.iv.i, 1
  %exitcond.not.i = icmp eq i64 %indvars.iv.next.i, 11
  br i1 %exitcond.not.i, label %34, label %30, !llvm.loop !8

30:                                               ; preds = %29, %20
  %indvars.iv.i = phi i64 [ 0, %20 ], [ %indvars.iv.next.i, %29 ]
  %31 = getelementptr inbounds nuw [11 x %struct.anon.29], ptr @event_types, i64 0, i64 %indvars.iv.i
  %32 = load i32, ptr %31, align 16
  %33 = icmp eq i32 %32, %28
  br i1 %33, label %_yaml_event_type_string.exit, label %29

34:                                               ; preds = %29
  call void (ptr, ...) @slurm_fatal_abort(ptr noundef nonnull @.str.27) #8
  unreachable

_yaml_event_type_string.exit:                     ; preds = %30
  %35 = getelementptr inbounds nuw i8, ptr %31, i64 8
  %36 = load ptr, ptr %35, align 8
  call void (ptr, i64, i64, i64, ptr, ...) @_log_flag_hex(ptr noundef %21, i64 noundef %25, i64 noundef %26, i64 noundef %27, ptr noundef nonnull @.str.25, ptr noundef nonnull @__func__._yaml_to_data, ptr noundef %2, i32 noundef %0, ptr noundef %36) #6
  br label %37

37:                                               ; preds = %_yaml_event_type_string.exit, %.lr.ph
  %38 = call fastcc i32 @_on_parse_event(i32 noundef %0, ptr noundef %1, ptr noundef %5, ptr noundef %2, ptr noundef %3)
  %39 = icmp eq i32 %38, 3
  br i1 %39, label %40, label %47

40:                                               ; preds = %37
  %41 = load i64, ptr getelementptr inbounds nuw (i8, ptr @slurm_conf, i64 320), align 8
  %42 = and i64 %41, 256
  %.not28 = icmp eq i64 %42, 0
  br i1 %.not28, label %.thread, label %43

43:                                               ; preds = %40
  %44 = call i32 @slurm_get_log_level() #6
  %45 = icmp sgt i32 %44, 3
  br i1 %45, label %46, label %.thread

46:                                               ; preds = %43
  call void (i32, ptr, ...) @slurm_log_var(i32 noundef 4, ptr noundef nonnull @.str.26, ptr noundef nonnull @plugin_type, ptr noundef nonnull @__func__._yaml_to_data, ptr noundef %2, i32 noundef %0) #6
  br label %.thread

.thread:                                          ; preds = %43, %46, %40
  call void @llvm.lifetime.end.p0(i64 104, ptr nonnull %5) #6
  br label %.loopexit

47:                                               ; preds = %37
  call void @llvm.lifetime.end.p0(i64 104, ptr nonnull %5) #6
  %48 = icmp samesign ult i32 %38, 4
  br i1 %48, label %13, label %.loopexit

.loopexit:                                        ; preds = %47, %.thread, %.thread31, %11
  %.023 = phi i32 [ 5, %11 ], [ 5, %.thread31 ], [ 2, %.thread ], [ 2, %47 ]
  ret i32 %.023
}